; Function Attrs: mustprogress nofree norecurse nosync nounwind willreturn memory(read, inaccessiblemem: none) uwtable
define noundef i32 @_ZNK4YAML7Scanner12GetTopIndentEv(ptr noundef nonnull readonly align 8 captures(none) dereferenceable(488) %0) local_unnamed_addr #13 align 2 {
  %2 = getelementptr inbounds nuw i8, ptr %0, i64 352
  %3 = getelementptr inbounds nuw i8, ptr %0, i64 320
  %4 = load ptr, ptr %2, align 8, !tbaa !100
  %5 = load ptr, ptr %3, align 8, !tbaa !100
  %6 = icmp eq ptr %4, %5
  br i1 %6, label %21, label %7

7:                                                ; preds = %1
  %8 = getelementptr inbounds nuw i8, ptr %0, i64 360
  %9 = load ptr, ptr %8, align 8, !tbaa !101, !noalias !185
  %10 = icmp eq ptr %4, %9
  br i1 %10, label %11, label %_ZNKSt5stackIPN4YAML7Scanner12IndentMarkerESt5dequeIS3_SaIS3_EEE3topEv.exit

11:                                               ; preds = %7
  %12 = getelementptr inbounds nuw i8, ptr %0, i64 376
  %13 = load ptr, ptr %12, align 8, !tbaa !105, !noalias !185
  %14 = getelementptr inbounds i8, ptr %13, i64 -8
  %15 = load ptr, ptr %14, align 8, !tbaa !24
  %16 = getelementptr inbounds nuw i8, ptr %15, i64 512
  br label %_ZNKSt5stackIPN4YAML7Scanner12IndentMarkerESt5dequeIS3_SaIS3_EEE3topEv.exit

_ZNKSt5stackIPN4YAML7Scanner12IndentMarkerESt5dequeIS3_SaIS3_EEE3topEv.exit: ; preds = %7, %11
  %17 = phi ptr [ %16, %11 ], [ %4, %7 ]
  %18 = getelementptr inbounds i8, ptr %17, i64 -8
  %19 = load ptr, ptr %18, align 8, !tbaa !10
  %20 = load i32, ptr %19, align 8, !tbaa !120
  br label %21

21:                                               ; preds = %1, %_ZNKSt5stackIPN4YAML7Scanner12IndentMarkerESt5dequeIS3_SaIS3_EEE3topEv.exit
  %.0 = phi i32 [ %20, %_ZNKSt5stackIPN4YAML7Scanner12IndentMarkerESt5dequeIS3_SaIS3_EEE3topEv.exit ], [ 0, %1 ]
  ret i32 %.0
}